target datalayout = "e-m:e-p270:32:32-p271:32:32-p272:64:64-i64:64-i128:128-f80:128-n8:16:32:64-S128"
target triple = "x86_64-pc-linux-gnu"

%struct.job_record = type { i32, ptr, ptr, ptr, ptr, i16, i32, i32, i32, ptr, i32, ptr, ptr, i16, ptr, double, i64, ptr, ptr, ptr, ptr, ptr, ptr, i32, ptr, i32, i64, i64, i32, i32, ptr, i16, i64, i64, i8, i32, ptr, ptr, ptr, ptr, ptr, ptr, ptr, ptr, i32, ptr, ptr, i32, ptr, i32, ptr, i32, ptr, i32, ptr, ptr, ptr, ptr, ptr, ptr, i32, i16, i64, ptr, ptr, ptr, ptr, %struct.acct_policy_limit_set_t, i16, ptr, ptr, ptr, ptr, ptr, i32, ptr, ptr, ptr, ptr, ptr, i32, i32, ptr, ptr, ptr, i16, ptr, ptr, i8, ptr, ptr, i64, i64, i8, i32, i32, i8, i32, ptr, i32, i64, i32, ptr, ptr, ptr, i8, i16, i64, i32, ptr, ptr, ptr, ptr, ptr, i16, i32, ptr, ptr, ptr, ptr, i32, ptr, i32, i16, i64, ptr, i32, i32, ptr, i64, ptr, ptr, i64, i32, i32, i64, i32, i32, ptr, ptr, ptr, ptr, ptr, ptr, ptr, ptr, ptr, ptr, ptr, ptr, i32, ptr, i16, i16, i16, i16, ptr, i32, i32, i8, i64 }
%struct.acct_policy_limit_set_t = type { i16, i16, ptr }

@hash_table_size = internal global i32 0, align 4
@job_hash = internal global ptr null, align 8

; Function Attrs: nounwind uwtable
define dso_local ptr @find_job_record(i32 noundef %0) #0 {
  %2 = alloca ptr, align 8
  %3 = alloca i32, align 4
  %4 = alloca ptr, align 8
  %5 = alloca i32, align 4
  store i32 %0, ptr %3, align 4
  call void @llvm.lifetime.start.p0(i64 8, ptr %4) #13
  %6 = load ptr, ptr @job_hash, align 8
  %7 = load i32, ptr %3, align 4
  %8 = load i32, ptr @hash_table_size, align 4
  %9 = urem i32 %7, %8
  %10 = zext i32 %9 to i64
  %11 = getelementptr inbounds nuw ptr, ptr %6, i64 %10
  %12 = load ptr, ptr %11, align 8
  store ptr %12, ptr %4, align 8
  br label %13

13:                                               ; preds = %24, %1
  %14 = load ptr, ptr %4, align 8
  %15 = icmp ne ptr %14, null
  br i1 %15, label %16, label %28

16:                                               ; preds = %13
  %17 = load ptr, ptr %4, align 8
  %18 = getelementptr inbounds nuw %struct.job_record, ptr %17, i32 0, i32 53
  %19 = load i32, ptr %18, align 8
  %20 = load i32, ptr %3, align 4
  %21 = icmp eq i32 %19, %20
  br i1 %21, label %22, label %24

22:                                               ; preds = %16
  %23 = load ptr, ptr %4, align 8
  store ptr %23, ptr %2, align 8
  store i32 1, ptr %5, align 4
  br label %29

24:                                               ; preds = %16
  %25 = load ptr, ptr %4, align 8
  %26 = getelementptr inbounds nuw %struct.job_record, ptr %25, i32 0, i32 55
  %27 = load ptr, ptr %26, align 8
  store ptr %27, ptr %4, align 8
  br label %13, !llvm.loop !14

28:                                               ; preds = %13
  store ptr null, ptr %2, align 8
  store i32 1, ptr %5, align 4
  br label %29

29:                                               ; preds = %28, %22
  call void @llvm.lifetime.end.p0(i64 8, ptr %4) #13
  %30 = load ptr, ptr %2, align 8
  ret ptr %30
}

; Function Attrs: nounwind uwtable
define internal i32 @_foreach_pack_jobid(ptr noundef %0, ptr noundef %1) #0 {
  %3 = alloca i32, align 4
  %4 = alloca ptr, align 8
  %5 = alloca ptr, align 8
  %6 = alloca ptr, align 8
  %7 = alloca i32, align 4
  %8 = alloca ptr, align 8
  %9 = alloca i32, align 4
  store ptr %0, ptr %4, align 8
  store ptr %1, ptr %5, align 8
  call void @llvm.lifetime.start.p0(i64 8, ptr %6) #13
  call void @llvm.lifetime.start.p0(i64 4, ptr %7) #13
  %10 = load ptr, ptr %4, align 8
  %11 = load i32, ptr %10, align 4
  store i32 %11, ptr %7, align 4
  call void @llvm.lifetime.start.p0(i64 8, ptr %8) #13
  %12 = load ptr, ptr %5, align 8
  store ptr %12, ptr %8, align 8
  %13 = load i32, ptr %7, align 4
  %14 = call ptr @find_job_record(i32 noundef %13)
  store ptr %14, ptr %6, align 8
  %15 = icmp ne ptr %14, null
  br i1 %15, label %17, label %16

16:                                               ; preds = %2
  store i32 0, ptr %3, align 4
  store i32 1, ptr %9, align 4
  br label %21

17:                                               ; preds = %2
  %18 = load ptr, ptr %6, align 8
  %19 = load ptr, ptr %8, align 8
  %20 = call i32 @_pack_job(ptr noundef %18, ptr noundef %19)
  store i32 %20, ptr %3, align 4
  store i32 1, ptr %9, align 4
  br label %21

21:                                               ; preds = %17, %16
  call void @llvm.lifetime.end.p0(i64 8, ptr %8) #13
  call void @llvm.lifetime.end.p0(i64 4, ptr %7) #13
  call void @llvm.lifetime.end.p0(i64 8, ptr %6) #13
  %22 = load i32, ptr %3, align 4
  ret i32 %22
}