; Function Attrs: nounwind uwtable
define internal noundef i32 @_foreach_pack_jobid(ptr noundef readonly captures(none) %0, ptr noundef %1) #0 {
  %3 = load i32, ptr %0, align 4
  %4 = load ptr, ptr @job_hash, align 8
  %5 = load i32, ptr @hash_table_size, align 4
  %6 = urem i32 %3, %5
  %7 = zext i32 %6 to i64
  %8 = getelementptr inbounds nuw ptr, ptr %4, i64 %7
  %.07.i = load ptr, ptr %8, align 8
  %.not8.i = icmp eq ptr %.07.i, null
  br i1 %.not8.i, label %find_job_record.exit.thread, label %.lr.ph.i

.lr.ph.i:                                         ; preds = %2, %12
  %.09.i = phi ptr [ %.0.i, %12 ], [ %.07.i, %2 ]
  %9 = getelementptr inbounds nuw i8, ptr %.09.i, i64 392
  %10 = load i32, ptr %9, align 8
  %11 = icmp eq i32 %10, %3
  br i1 %11, label %find_job_record.exit, label %12

12:                                               ; preds = %.lr.ph.i
  %13 = getelementptr inbounds nuw i8, ptr %.09.i, i64 408
  %.0.i = load ptr, ptr %13, align 8
  %.not.i = icmp eq ptr %.0.i, null
  br i1 %.not.i, label %find_job_record.exit.thread, label %.lr.ph.i, !llvm.loop !14

find_job_record.exit:                             ; preds = %.lr.ph.i
  %14 = tail call i32 @_pack_job(ptr noundef nonnull %.09.i, ptr noundef %1)
  br label %find_job_record.exit.thread

find_job_record.exit.thread:                      ; preds = %12, %2, %find_job_record.exit
  ret i32 0
}